; Function Attrs: mustprogress nounwind uwtable
define dso_local noundef ptr @_ZN4llvm12ConstantExpr14getPointerCastEPNS_8ConstantEPNS_4TypeE(ptr noundef %0, ptr noundef %1) local_unnamed_addr #0 align 2 {
  %3 = getelementptr inbounds nuw i8, ptr %1, i64 8
  %4 = load i32, ptr %3, align 8
  %5 = and i32 %4, 255
  %6 = add nsw i32 %5, -17
  %spec.select.i.i.i = icmp ult i32 %6, 2
  br i1 %spec.select.i.i.i, label %7, label %_ZNK4llvm4Type18isIntOrIntVectorTyEv.exit

7:                                                ; preds = %2
  %8 = getelementptr inbounds nuw i8, ptr %1, i64 16
  %9 = load ptr, ptr %8, align 8
  %10 = load ptr, ptr %9, align 8
  %.phi.trans.insert.i = getelementptr inbounds nuw i8, ptr %10, i64 8
  %.pre.i = load i32, ptr %.phi.trans.insert.i, align 8
  %.pre1.i = and i32 %.pre.i, 255
  br label %_ZNK4llvm4Type18isIntOrIntVectorTyEv.exit

_ZNK4llvm4Type18isIntOrIntVectorTyEv.exit:        ; preds = %2, %7
  %.pre-phi.i = phi i32 [ %5, %2 ], [ %.pre1.i, %7 ]
  %11 = icmp eq i32 %.pre-phi.i, 12
  br i1 %11, label %_ZN4llvm12ConstantExpr10getBitCastEPNS_8ConstantEPNS_4TypeEb.exit.sink.split, label %12

12:                                               ; preds = %_ZNK4llvm4Type18isIntOrIntVectorTyEv.exit
  %13 = getelementptr inbounds nuw i8, ptr %0, i64 8
  %14 = load ptr, ptr %13, align 8
  %15 = getelementptr inbounds nuw i8, ptr %14, i64 8
  %16 = load i32, ptr %15, align 8
  %17 = and i32 %16, 255
  %18 = add nsw i32 %17, -17
  %spec.select.i.i.i11 = icmp ult i32 %18, 2
  br i1 %spec.select.i.i.i11, label %19, label %_ZNK4llvm4Type22getPointerAddressSpaceEv.exit

19:                                               ; preds = %12
  %20 = getelementptr inbounds nuw i8, ptr %14, i64 16
  %21 = load ptr, ptr %20, align 8
  %22 = load ptr, ptr %21, align 8
  %.phi.trans.insert.i12 = getelementptr inbounds nuw i8, ptr %22, i64 8
  %.pre.i13 = load i32, ptr %.phi.trans.insert.i12, align 8
  br label %_ZNK4llvm4Type22getPointerAddressSpaceEv.exit

_ZNK4llvm4Type22getPointerAddressSpaceEv.exit:    ; preds = %12, %19
  %23 = phi i32 [ %.pre.i13, %19 ], [ %16, %12 ]
  br i1 %spec.select.i.i.i, label %_ZNK4llvm4Type18isPtrOrPtrVectorTyEv.exit, label %_ZNK4llvm4Type18isPtrOrPtrVectorTyEv.exit.thread

_ZNK4llvm4Type18isPtrOrPtrVectorTyEv.exit:        ; preds = %_ZNK4llvm4Type22getPointerAddressSpaceEv.exit
  %24 = getelementptr inbounds nuw i8, ptr %1, i64 16
  %25 = load ptr, ptr %24, align 8
  %26 = load ptr, ptr %25, align 8
  %.phi.trans.insert.i16 = getelementptr inbounds nuw i8, ptr %26, i64 8
  %.pre.i17 = load i32, ptr %.phi.trans.insert.i16, align 8
  %.pre1.i18 = and i32 %.pre.i17, 255
  %27 = icmp eq i32 %.pre1.i18, 14
  br i1 %27, label %_ZNK4llvm4Type22getPointerAddressSpaceEv.exit22, label %30

_ZNK4llvm4Type18isPtrOrPtrVectorTyEv.exit.thread: ; preds = %_ZNK4llvm4Type22getPointerAddressSpaceEv.exit
  %28 = icmp eq i32 %5, 14
  br i1 %28, label %_ZNK4llvm4Type22getPointerAddressSpaceEv.exit22, label %30

_ZNK4llvm4Type22getPointerAddressSpaceEv.exit22:  ; preds = %_ZNK4llvm4Type18isPtrOrPtrVectorTyEv.exit, %_ZNK4llvm4Type18isPtrOrPtrVectorTyEv.exit.thread
  %29 = phi i32 [ %4, %_ZNK4llvm4Type18isPtrOrPtrVectorTyEv.exit.thread ], [ %.pre.i17, %_ZNK4llvm4Type18isPtrOrPtrVectorTyEv.exit ]
  %.not.unshifted = xor i32 %29, %23
  %.not = icmp ult i32 %.not.unshifted, 256
  br i1 %.not, label %30, label %_ZN4llvm12ConstantExpr10getBitCastEPNS_8ConstantEPNS_4TypeEb.exit.sink.split

30:                                               ; preds = %_ZNK4llvm4Type18isPtrOrPtrVectorTyEv.exit.thread, %_ZNK4llvm4Type22getPointerAddressSpaceEv.exit22, %_ZNK4llvm4Type18isPtrOrPtrVectorTyEv.exit
  %31 = icmp eq ptr %14, %1
  br i1 %31, label %_ZN4llvm12ConstantExpr10getBitCastEPNS_8ConstantEPNS_4TypeEb.exit, label %_ZN4llvm12ConstantExpr10getBitCastEPNS_8ConstantEPNS_4TypeEb.exit.sink.split

_ZN4llvm12ConstantExpr10getBitCastEPNS_8ConstantEPNS_4TypeEb.exit.sink.split: ; preds = %30, %_ZNK4llvm4Type22getPointerAddressSpaceEv.exit22, %_ZNK4llvm4Type18isIntOrIntVectorTyEv.exit
  %.sink = phi i32 [ 47, %_ZNK4llvm4Type18isIntOrIntVectorTyEv.exit ], [ 50, %_ZNK4llvm4Type22getPointerAddressSpaceEv.exit22 ], [ 49, %30 ]
  %32 = tail call fastcc noundef ptr @_ZL13getFoldedCastN4llvm11Instruction7CastOpsEPNS_8ConstantEPNS_4TypeEb(i32 noundef %.sink, ptr noundef nonnull %0, ptr noundef nonnull %1, i1 noundef zeroext false)
  br label %_ZN4llvm12ConstantExpr10getBitCastEPNS_8ConstantEPNS_4TypeEb.exit

_ZN4llvm12ConstantExpr10getBitCastEPNS_8ConstantEPNS_4TypeEb.exit: ; preds = %_ZN4llvm12ConstantExpr10getBitCastEPNS_8ConstantEPNS_4TypeEb.exit.sink.split, %30
  %.0 = phi ptr [ %0, %30 ], [ %32, %_ZN4llvm12ConstantExpr10getBitCastEPNS_8ConstantEPNS_4TypeEb.exit.sink.split ]
  ret ptr %.0
}